target datalayout = "e-m:e-p270:32:32-p271:32:32-p272:64:64-i64:64-i128:128-f80:128-n8:16:32:64-S128"
target triple = "x86_64-pc-linux-gnu"

@.str.46 = private unnamed_addr constant [5 x i8] c"Mbps\00", align 1
@.str.47 = private unnamed_addr constant [5 x i8] c"kbps\00", align 1
@.str.110 = private unnamed_addr constant [11 x i8] c"%u %s (%u)\00", align 1
@hf_nas_eps_esm_ext_mbr_unit = internal global i32 0, align 4
@hf_nas_eps_esm_ext_mbr_ul = internal global i32 0, align 4
@hf_nas_eps_esm_ext_mbr_dl = internal global i32 0, align 4
@hf_nas_eps_esm_ext_gbr_unit = internal global i32 0, align 4
@hf_nas_eps_esm_ext_gbr_ul = internal global i32 0, align 4
@hf_nas_eps_esm_ext_gbr_dl = internal global i32 0, align 4
@.str.952 = private unnamed_addr constant [1 x i8] zeroinitializer, align 1
@.str.953 = private unnamed_addr constant [5 x i8] c"Gbps\00", align 1
@.str.954 = private unnamed_addr constant [5 x i8] c"Tbps\00", align 1
@.str.955 = private unnamed_addr constant [5 x i8] c"Pbps\00", align 1

; Function Attrs: nounwind null_pointer_is_valid sspstrong uwtable
define internal i32 @get_ext_eps_qos_unit(i32 noundef %0, ptr noundef %1) #3 {
  %3 = alloca i32, align 4
  %4 = alloca ptr, align 8
  %5 = alloca i32, align 4
  store i32 %0, ptr %3, align 4
  store ptr %1, ptr %4, align 8
  call void @llvm.lifetime.start.p0(i64 4, ptr %5) #10
  %6 = load i32, ptr %3, align 4
  %7 = icmp eq i32 %6, 0
  br i1 %7, label %8, label %10

8:                                                ; preds = %2
  store i32 0, ptr %5, align 4
  %9 = load ptr, ptr %4, align 8
  store ptr @.str.952, ptr %9, align 8
  br label %58

10:                                               ; preds = %2
  %11 = load i32, ptr %3, align 4
  %12 = icmp eq i32 %11, 1
  br i1 %12, label %13, label %15

13:                                               ; preds = %10
  store i32 200, ptr %5, align 4
  %14 = load ptr, ptr %4, align 8
  store ptr @.str.47, ptr %14, align 8
  br label %57

15:                                               ; preds = %10
  %16 = load i32, ptr %3, align 4
  %17 = icmp ule i32 %16, 6
  br i1 %17, label %18, label %24

18:                                               ; preds = %15
  %19 = load i32, ptr %3, align 4
  %20 = sub i32 %19, 2
  %21 = mul i32 2, %20
  %22 = shl i32 1, %21
  store i32 %22, ptr %5, align 4
  %23 = load ptr, ptr %4, align 8
  store ptr @.str.46, ptr %23, align 8
  br label %56

24:                                               ; preds = %15
  %25 = load i32, ptr %3, align 4
  %26 = icmp ule i32 %25, 11
  br i1 %26, label %27, label %33

27:                                               ; preds = %24
  %28 = load i32, ptr %3, align 4
  %29 = sub i32 %28, 7
  %30 = mul i32 2, %29
  %31 = shl i32 1, %30
  store i32 %31, ptr %5, align 4
  %32 = load ptr, ptr %4, align 8
  store ptr @.str.953, ptr %32, align 8
  br label %55

33:                                               ; preds = %24
  %34 = load i32, ptr %3, align 4
  %35 = icmp ule i32 %34, 16
  br i1 %35, label %36, label %42

36:                                               ; preds = %33
  %37 = load i32, ptr %3, align 4
  %38 = sub i32 %37, 12
  %39 = mul i32 2, %38
  %40 = shl i32 1, %39
  store i32 %40, ptr %5, align 4
  %41 = load ptr, ptr %4, align 8
  store ptr @.str.954, ptr %41, align 8
  br label %54

42:                                               ; preds = %33
  %43 = load i32, ptr %3, align 4
  %44 = icmp ule i32 %43, 21
  br i1 %44, label %45, label %51

45:                                               ; preds = %42
  %46 = load i32, ptr %3, align 4
  %47 = sub i32 %46, 17
  %48 = mul i32 2, %47
  %49 = shl i32 1, %48
  store i32 %49, ptr %5, align 4
  %50 = load ptr, ptr %4, align 8
  store ptr @.str.955, ptr %50, align 8
  br label %53

51:                                               ; preds = %42
  store i32 256, ptr %5, align 4
  %52 = load ptr, ptr %4, align 8
  store ptr @.str.955, ptr %52, align 8
  br label %53

53:                                               ; preds = %51, %45
  br label %54

54:                                               ; preds = %53, %36
  br label %55

55:                                               ; preds = %54, %27
  br label %56

56:                                               ; preds = %55, %18
  br label %57

57:                                               ; preds = %56, %13
  br label %58

58:                                               ; preds = %57, %8
  %59 = load i32, ptr %5, align 4
  call void @llvm.lifetime.end.p0(i64 4, ptr %5) #10
  ret i32 %59
}

; Function Attrs: null_pointer_is_valid sspstrong uwtable
define hidden zeroext i16 @de_esm_ext_eps_qos(ptr noundef %0, ptr noundef %1, ptr noundef %2, i32 noundef %3, i32 noundef %4, ptr noundef %5, i32 noundef %6) #1 {
  %8 = alloca ptr, align 8
  %9 = alloca ptr, align 8
  %10 = alloca ptr, align 8
  %11 = alloca i32, align 4
  %12 = alloca i32, align 4
  %13 = alloca ptr, align 8
  %14 = alloca i32, align 4
  %15 = alloca i32, align 4
  %16 = alloca i32, align 4
  %17 = alloca i32, align 4
  %18 = alloca i32, align 4
  %19 = alloca ptr, align 8
  store ptr %0, ptr %8, align 8
  store ptr %1, ptr %9, align 8
  store ptr %2, ptr %10, align 8
  store i32 %3, ptr %11, align 4
  store i32 %4, ptr %12, align 4
  store ptr %5, ptr %13, align 8
  store i32 %6, ptr %14, align 4
  call void @llvm.lifetime.start.p0(i64 4, ptr %15) #10
  call void @llvm.lifetime.start.p0(i64 4, ptr %16) #10
  call void @llvm.lifetime.start.p0(i64 4, ptr %17) #10
  call void @llvm.lifetime.start.p0(i64 4, ptr %18) #10
  call void @llvm.lifetime.start.p0(i64 8, ptr %19) #10
  %20 = load i32, ptr %11, align 4
  store i32 %20, ptr %15, align 4
  %21 = load ptr, ptr %9, align 8
  %22 = load i32, ptr @hf_nas_eps_esm_ext_mbr_unit, align 4
  %23 = load ptr, ptr %8, align 8
  %24 = load i32, ptr %15, align 4
  %25 = call ptr @proto_tree_add_item_ret_uint(ptr noundef %21, i32 noundef %22, ptr noundef %23, i32 noundef %24, i32 noundef 1, i32 noundef 0, ptr noundef %16)
  %26 = load i32, ptr %15, align 4
  %27 = add i32 %26, 1
  store i32 %27, ptr %15, align 4
  %28 = load i32, ptr %16, align 4
  %29 = call i32 @get_ext_eps_qos_unit(i32 noundef %28, ptr noundef %19)
  store i32 %29, ptr %17, align 4
  %30 = load ptr, ptr %8, align 8
  %31 = load i32, ptr %15, align 4
  %32 = call zeroext i16 @tvb_get_ntohs(ptr noundef %30, i32 noundef %31)
  %33 = zext i16 %32 to i32
  store i32 %33, ptr %18, align 4
  %34 = load ptr, ptr %9, align 8
  %35 = load i32, ptr @hf_nas_eps_esm_ext_mbr_ul, align 4
  %36 = load ptr, ptr %8, align 8
  %37 = load i32, ptr %15, align 4
  %38 = load i32, ptr %18, align 4
  %39 = load i32, ptr %18, align 4
  %40 = load i32, ptr %17, align 4
  %41 = mul i32 %39, %40
  %42 = load ptr, ptr %19, align 8
  %43 = load i32, ptr %18, align 4
  %44 = call ptr (ptr, i32, ptr, i32, i32, i32, ptr, ...) @proto_tree_add_uint_format_value(ptr noundef %34, i32 noundef %35, ptr noundef %36, i32 noundef %37, i32 noundef 2, i32 noundef %38, ptr noundef @.str.110, i32 noundef %41, ptr noundef %42, i32 noundef %43)
  %45 = load i32, ptr %15, align 4
  %46 = add i32 %45, 2
  store i32 %46, ptr %15, align 4
  %47 = load ptr, ptr %8, align 8
  %48 = load i32, ptr %15, align 4
  %49 = call zeroext i16 @tvb_get_ntohs(ptr noundef %47, i32 noundef %48)
  %50 = zext i16 %49 to i32
  store i32 %50, ptr %18, align 4
  %51 = load ptr, ptr %9, align 8
  %52 = load i32, ptr @hf_nas_eps_esm_ext_mbr_dl, align 4
  %53 = load ptr, ptr %8, align 8
  %54 = load i32, ptr %15, align 4
  %55 = load i32, ptr %18, align 4
  %56 = load i32, ptr %18, align 4
  %57 = load i32, ptr %17, align 4
  %58 = mul i32 %56, %57
  %59 = load ptr, ptr %19, align 8
  %60 = load i32, ptr %18, align 4
  %61 = call ptr (ptr, i32, ptr, i32, i32, i32, ptr, ...) @proto_tree_add_uint_format_value(ptr noundef %51, i32 noundef %52, ptr noundef %53, i32 noundef %54, i32 noundef 2, i32 noundef %55, ptr noundef @.str.110, i32 noundef %58, ptr noundef %59, i32 noundef %60)
  %62 = load i32, ptr %15, align 4
  %63 = add i32 %62, 2
  store i32 %63, ptr %15, align 4
  %64 = load ptr, ptr %9, align 8
  %65 = load i32, ptr @hf_nas_eps_esm_ext_gbr_unit, align 4
  %66 = load ptr, ptr %8, align 8
  %67 = load i32, ptr %15, align 4
  %68 = call ptr @proto_tree_add_item_ret_uint(ptr noundef %64, i32 noundef %65, ptr noundef %66, i32 noundef %67, i32 noundef 1, i32 noundef 0, ptr noundef %16)
  %69 = load i32, ptr %15, align 4
  %70 = add i32 %69, 1
  store i32 %70, ptr %15, align 4
  %71 = load i32, ptr %16, align 4
  %72 = call i32 @get_ext_eps_qos_unit(i32 noundef %71, ptr noundef %19)
  store i32 %72, ptr %17, align 4
  %73 = load ptr, ptr %8, align 8
  %74 = load i32, ptr %15, align 4
  %75 = call zeroext i16 @tvb_get_ntohs(ptr noundef %73, i32 noundef %74)
  %76 = zext i16 %75 to i32
  store i32 %76, ptr %18, align 4
  %77 = load ptr, ptr %9, align 8
  %78 = load i32, ptr @hf_nas_eps_esm_ext_gbr_ul, align 4
  %79 = load ptr, ptr %8, align 8
  %80 = load i32, ptr %15, align 4
  %81 = load i32, ptr %18, align 4
  %82 = load i32, ptr %18, align 4
  %83 = load i32, ptr %17, align 4
  %84 = mul i32 %82, %83
  %85 = load ptr, ptr %19, align 8
  %86 = load i32, ptr %18, align 4
  %87 = call ptr (ptr, i32, ptr, i32, i32, i32, ptr, ...) @proto_tree_add_uint_format_value(ptr noundef %77, i32 noundef %78, ptr noundef %79, i32 noundef %80, i32 noundef 2, i32 noundef %81, ptr noundef @.str.110, i32 noundef %84, ptr noundef %85, i32 noundef %86)
  %88 = load i32, ptr %15, align 4
  %89 = add i32 %88, 2
  store i32 %89, ptr %15, align 4
  %90 = load ptr, ptr %8, align 8
  %91 = load i32, ptr %15, align 4
  %92 = call zeroext i16 @tvb_get_ntohs(ptr noundef %90, i32 noundef %91)
  %93 = zext i16 %92 to i32
  store i32 %93, ptr %18, align 4
  %94 = load ptr, ptr %9, align 8
  %95 = load i32, ptr @hf_nas_eps_esm_ext_gbr_dl, align 4
  %96 = load ptr, ptr %8, align 8
  %97 = load i32, ptr %15, align 4
  %98 = load i32, ptr %18, align 4
  %99 = load i32, ptr %18, align 4
  %100 = load i32, ptr %17, align 4
  %101 = mul i32 %99, %100
  %102 = load ptr, ptr %19, align 8
  %103 = load i32, ptr %18, align 4
  %104 = call ptr (ptr, i32, ptr, i32, i32, i32, ptr, ...) @proto_tree_add_uint_format_value(ptr noundef %94, i32 noundef %95, ptr noundef %96, i32 noundef %97, i32 noundef 2, i32 noundef %98, ptr noundef @.str.110, i32 noundef %101, ptr noundef %102, i32 noundef %103)
  %105 = load i32, ptr %12, align 4
  %106 = trunc i32 %105 to i16
  call void @llvm.lifetime.end.p0(i64 8, ptr %19) #10
  call void @llvm.lifetime.end.p0(i64 4, ptr %18) #10
  call void @llvm.lifetime.end.p0(i64 4, ptr %17) #10
  call void @llvm.lifetime.end.p0(i64 4, ptr %16) #10
  call void @llvm.lifetime.end.p0(i64 4, ptr %15) #10
  ret i16 %106
}