; Function Attrs: null_pointer_is_valid sspstrong uwtable
define hidden noundef zeroext i16 @de_esm_ext_eps_qos(ptr noundef %0, ptr noundef %1, ptr readnone captures(none) %2, i32 noundef %3, i32 noundef %4, ptr readnone captures(none) %5, i32 %6) #1 {
  %8 = alloca i32, align 4
  call void @llvm.lifetime.start.p0(i64 4, ptr nonnull %8) #10
  %9 = load i32, ptr @hf_nas_eps_esm_ext_mbr_unit, align 4
  %10 = call ptr @proto_tree_add_item_ret_uint(ptr noundef %1, i32 noundef %9, ptr noundef %0, i32 noundef %3, i32 noundef 1, i32 noundef 0, ptr noundef nonnull %8)
  %11 = add i32 %3, 1
  %12 = load i32, ptr %8, align 4
  switch i32 %12, label %14 [
    i32 0, label %get_ext_eps_qos_unit.exit
    i32 1, label %13
  ]

13:                                               ; preds = %7
  br label %get_ext_eps_qos_unit.exit

14:                                               ; preds = %7
  %15 = icmp ult i32 %12, 7
  br i1 %15, label %16, label %20

16:                                               ; preds = %14
  %17 = shl nuw nsw i32 %12, 1
  %18 = add nsw i32 %17, -4
  %19 = shl nuw nsw i32 1, %18
  br label %get_ext_eps_qos_unit.exit

20:                                               ; preds = %14
  %21 = icmp ult i32 %12, 12
  br i1 %21, label %22, label %26

22:                                               ; preds = %20
  %23 = shl nuw nsw i32 %12, 1
  %24 = add nsw i32 %23, -14
  %25 = shl nuw nsw i32 1, %24
  br label %get_ext_eps_qos_unit.exit

26:                                               ; preds = %20
  %27 = icmp ult i32 %12, 17
  br i1 %27, label %28, label %32

28:                                               ; preds = %26
  %29 = shl nuw nsw i32 %12, 1
  %30 = add nsw i32 %29, -24
  %31 = shl nuw nsw i32 1, %30
  br label %get_ext_eps_qos_unit.exit

32:                                               ; preds = %26
  %33 = icmp ult i32 %12, 22
  br i1 %33, label %34, label %get_ext_eps_qos_unit.exit

34:                                               ; preds = %32
  %35 = shl nuw nsw i32 %12, 1
  %36 = add nsw i32 %35, -34
  %37 = shl nuw nsw i32 1, %36
  br label %get_ext_eps_qos_unit.exit

get_ext_eps_qos_unit.exit:                        ; preds = %7, %13, %16, %22, %28, %32, %34
  %.str.47.sink.i = phi ptr [ @.str.47, %13 ], [ @.str.953, %22 ], [ @.str.955, %34 ], [ @.str.954, %28 ], [ @.str.46, %16 ], [ @.str.952, %7 ], [ @.str.955, %32 ]
  %.0.i = phi i32 [ 200, %13 ], [ %25, %22 ], [ %37, %34 ], [ %31, %28 ], [ %19, %16 ], [ %12, %7 ], [ 256, %32 ]
  %38 = call zeroext i16 @tvb_get_ntohs(ptr noundef %0, i32 noundef %11)
  %39 = zext i16 %38 to i32
  %40 = load i32, ptr @hf_nas_eps_esm_ext_mbr_ul, align 4
  %41 = mul nuw nsw i32 %.0.i, %39
  %42 = call ptr (ptr, i32, ptr, i32, i32, i32, ptr, ...) @proto_tree_add_uint_format_value(ptr noundef %1, i32 noundef %40, ptr noundef %0, i32 noundef %11, i32 noundef 2, i32 noundef %39, ptr noundef nonnull @.str.110, i32 noundef %41, ptr noundef nonnull %.str.47.sink.i, i32 noundef %39)
  %43 = add i32 %3, 3
  %44 = call zeroext i16 @tvb_get_ntohs(ptr noundef %0, i32 noundef %43)
  %45 = zext i16 %44 to i32
  %46 = load i32, ptr @hf_nas_eps_esm_ext_mbr_dl, align 4
  %47 = mul nuw nsw i32 %.0.i, %45
  %48 = call ptr (ptr, i32, ptr, i32, i32, i32, ptr, ...) @proto_tree_add_uint_format_value(ptr noundef %1, i32 noundef %46, ptr noundef %0, i32 noundef %43, i32 noundef 2, i32 noundef %45, ptr noundef nonnull @.str.110, i32 noundef %47, ptr noundef nonnull %.str.47.sink.i, i32 noundef %45)
  %49 = add i32 %3, 5
  %50 = load i32, ptr @hf_nas_eps_esm_ext_gbr_unit, align 4
  %51 = call ptr @proto_tree_add_item_ret_uint(ptr noundef %1, i32 noundef %50, ptr noundef %0, i32 noundef %49, i32 noundef 1, i32 noundef 0, ptr noundef nonnull %8)
  %52 = load i32, ptr %8, align 4
  switch i32 %52, label %54 [
    i32 0, label %get_ext_eps_qos_unit.exit50
    i32 1, label %53
  ]

53:                                               ; preds = %get_ext_eps_qos_unit.exit
  br label %get_ext_eps_qos_unit.exit50

54:                                               ; preds = %get_ext_eps_qos_unit.exit
  %55 = icmp ult i32 %52, 7
  br i1 %55, label %56, label %60

56:                                               ; preds = %54
  %57 = shl nuw nsw i32 %52, 1
  %58 = add nsw i32 %57, -4
  %59 = shl nuw nsw i32 1, %58
  br label %get_ext_eps_qos_unit.exit50

60:                                               ; preds = %54
  %61 = icmp ult i32 %52, 12
  br i1 %61, label %62, label %66

62:                                               ; preds = %60
  %63 = shl nuw nsw i32 %52, 1
  %64 = add nsw i32 %63, -14
  %65 = shl nuw nsw i32 1, %64
  br label %get_ext_eps_qos_unit.exit50

66:                                               ; preds = %60
  %67 = icmp ult i32 %52, 17
  br i1 %67, label %68, label %72

68:                                               ; preds = %66
  %69 = shl nuw nsw i32 %52, 1
  %70 = add nsw i32 %69, -24
  %71 = shl nuw nsw i32 1, %70
  br label %get_ext_eps_qos_unit.exit50

72:                                               ; preds = %66
  %73 = icmp ult i32 %52, 22
  br i1 %73, label %74, label %get_ext_eps_qos_unit.exit50

74:                                               ; preds = %72
  %75 = shl nuw nsw i32 %52, 1
  %76 = add nsw i32 %75, -34
  %77 = shl nuw nsw i32 1, %76
  br label %get_ext_eps_qos_unit.exit50

get_ext_eps_qos_unit.exit50:                      ; preds = %get_ext_eps_qos_unit.exit, %53, %56, %62, %68, %72, %74
  %.str.47.sink.i48 = phi ptr [ @.str.47, %53 ], [ @.str.953, %62 ], [ @.str.955, %74 ], [ @.str.954, %68 ], [ @.str.46, %56 ], [ @.str.952, %get_ext_eps_qos_unit.exit ], [ @.str.955, %72 ]
  %.0.i49 = phi i32 [ 200, %53 ], [ %65, %62 ], [ %77, %74 ], [ %71, %68 ], [ %59, %56 ], [ %52, %get_ext_eps_qos_unit.exit ], [ 256, %72 ]
  %78 = add i32 %3, 6
  %79 = call zeroext i16 @tvb_get_ntohs(ptr noundef %0, i32 noundef %78)
  %80 = zext i16 %79 to i32
  %81 = load i32, ptr @hf_nas_eps_esm_ext_gbr_ul, align 4
  %82 = mul nuw nsw i32 %.0.i49, %80
  %83 = call ptr (ptr, i32, ptr, i32, i32, i32, ptr, ...) @proto_tree_add_uint_format_value(ptr noundef %1, i32 noundef %81, ptr noundef %0, i32 noundef %78, i32 noundef 2, i32 noundef %80, ptr noundef nonnull @.str.110, i32 noundef %82, ptr noundef nonnull %.str.47.sink.i48, i32 noundef %80)
  %84 = add i32 %3, 8
  %85 = call zeroext i16 @tvb_get_ntohs(ptr noundef %0, i32 noundef %84)
  %86 = zext i16 %85 to i32
  %87 = load i32, ptr @hf_nas_eps_esm_ext_gbr_dl, align 4
  %88 = mul nuw nsw i32 %.0.i49, %86
  %89 = call ptr (ptr, i32, ptr, i32, i32, i32, ptr, ...) @proto_tree_add_uint_format_value(ptr noundef %1, i32 noundef %87, ptr noundef %0, i32 noundef %84, i32 noundef 2, i32 noundef %86, ptr noundef nonnull @.str.110, i32 noundef %88, ptr noundef nonnull %.str.47.sink.i48, i32 noundef %86)
  %90 = trunc i32 %4 to i16
  call void @llvm.lifetime.end.p0(i64 4, ptr nonnull %8) #10
  ret i16 %90
}